	.file	"main_4_3.cpp"
	.text
.Ltext0:
	.section	.text._ZN7Point2d3FooEv,"axG",@progbits,Point2d::Foo(),comdat
	.align 2
	.weak	Point2d::Foo()
	.type	Point2d::Foo(), @function
Point2d::Foo():
.LFB0:
	.file 1 "main_4_3.cpp"
	.loc 1 3 0
	.cfi_startproc
	pushq	%rbp
.LCFI0:
	.cfi_def_cfa_offset 16
	.cfi_offset 6, -16
	movq	%rsp, %rbp
.LCFI1:
	.cfi_def_cfa_register 6
	movq	%rdi, -8(%rbp)
	.loc 1 3 0
	popq	%rbp
.LCFI2:
	.cfi_def_cfa 7, 8
	ret
	.cfi_endproc
.LFE0:
	.size	Point2d::Foo(), .-Point2d::Foo()
	.section	.text._ZN7Point2d3BooEv,"axG",@progbits,Point2d::Boo(),comdat
	.align 2
	.weak	Point2d::Boo()
	.type	Point2d::Boo(), @function
Point2d::Boo():
.LFB1:
	.loc 1 4 0
	.cfi_startproc
	pushq	%rbp
.LCFI3:
	.cfi_def_cfa_offset 16
	.cfi_offset 6, -16
	movq	%rsp, %rbp
.LCFI4:
	.cfi_def_cfa_register 6
	movq	%rdi, -8(%rbp)
	.loc 1 4 0
	popq	%rbp
.LCFI5:
	.cfi_def_cfa 7, 8
	ret
	.cfi_endproc
.LFE1:
	.size	Point2d::Boo(), .-Point2d::Boo()
	.section	.text._ZN7Point2d13non_overwriteEv,"axG",@progbits,Point2d::non_overwrite(),comdat
	.align 2
	.weak	Point2d::non_overwrite()
	.type	Point2d::non_overwrite(), @function
Point2d::non_overwrite():
.LFB2:
	.loc 1 5 0
	.cfi_startproc
	pushq	%rbp
.LCFI6:
	.cfi_def_cfa_offset 16
	.cfi_offset 6, -16
	movq	%rsp, %rbp
.LCFI7:
	.cfi_def_cfa_register 6
	movq	%rdi, -8(%rbp)
	.loc 1 5 0
	popq	%rbp
.LCFI8:
	.cfi_def_cfa 7, 8
	ret
	.cfi_endproc
.LFE2:
	.size	Point2d::non_overwrite(), .-Point2d::non_overwrite()
	.section	.text._ZN6Vertex3FooEv,"axG",@progbits,Vertex::Foo(),comdat
	.align 2
	.weak	Vertex::Foo()
	.type	Vertex::Foo(), @function
Vertex::Foo():
.LFB5:
	.loc 1 17 0
	.cfi_startproc
	pushq	%rbp
.LCFI9:
	.cfi_def_cfa_offset 16
	.cfi_offset 6, -16
	movq	%rsp, %rbp
.LCFI10:
	.cfi_def_cfa_register 6
	movq	%rdi, -8(%rbp)
	.loc 1 17 0
	popq	%rbp
.LCFI11:
	.cfi_def_cfa 7, 8
	ret
	.cfi_endproc
.LFE5:
	.size	Vertex::Foo(), .-Vertex::Foo()
	.set	.LTHUNK0,Vertex::Foo()
	.weak	virtual thunk to Vertex::Foo()
	.type	virtual thunk to Vertex::Foo(), @function
virtual thunk to Vertex::Foo():
.LFB22:
	.cfi_startproc
	movq	(%rdi), %r10
	addq	-24(%r10), %rdi
	jmp	.LTHUNK0
	.cfi_endproc
.LFE22:
	.size	virtual thunk to Vertex::Foo(), .-virtual thunk to Vertex::Foo()
	.section	.text._ZN6Vertex6BooVerEv,"axG",@progbits,Vertex::BooVer(),comdat
	.align 2
	.weak	Vertex::BooVer()
	.type	Vertex::BooVer(), @function
Vertex::BooVer():
.LFB6:
	.loc 1 18 0
	.cfi_startproc
	pushq	%rbp
.LCFI12:
	.cfi_def_cfa_offset 16
	.cfi_offset 6, -16
	movq	%rsp, %rbp
.LCFI13:
	.cfi_def_cfa_register 6
	movq	%rdi, -8(%rbp)
	.loc 1 18 0
	popq	%rbp
.LCFI14:
	.cfi_def_cfa 7, 8
	ret
	.cfi_endproc
.LFE6:
	.size	Vertex::BooVer(), .-Vertex::BooVer()
	.section	.text._ZN7Point3d5Boo3dEv,"axG",@progbits,Point3d::Boo3d(),comdat
	.align 2
	.weak	Point3d::Boo3d()
	.type	Point3d::Boo3d(), @function
Point3d::Boo3d():
.LFB7:
	.loc 1 25 0
	.cfi_startproc
	pushq	%rbp
.LCFI15:
	.cfi_def_cfa_offset 16
	.cfi_offset 6, -16
	movq	%rsp, %rbp
.LCFI16:
	.cfi_def_cfa_register 6
	movq	%rdi, -8(%rbp)
	.loc 1 25 0
	popq	%rbp
.LCFI17:
	.cfi_def_cfa 7, 8
	ret
	.cfi_endproc
.LFE7:
	.size	Point3d::Boo3d(), .-Point3d::Boo3d()
	.section	.text._ZN8Vertex3d4testEv,"axG",@progbits,Vertex3d::test(),comdat
	.align 2
	.weak	Vertex3d::test()
	.type	Vertex3d::test(), @function
Vertex3d::test():
.LFB8:
	.loc 1 32 0
	.cfi_startproc
	pushq	%rbp
.LCFI18:
	.cfi_def_cfa_offset 16
	.cfi_offset 6, -16
	movq	%rsp, %rbp
.LCFI19:
	.cfi_def_cfa_register 6
	movq	%rdi, -8(%rbp)
	.loc 1 32 0
	popq	%rbp
.LCFI20:
	.cfi_def_cfa 7, 8
	ret
	.cfi_endproc
.LFE8:
	.size	Vertex3d::test(), .-Vertex3d::test()
	.section	.text._ZN7Point2dC2Ev,"axG",@progbits,Point2d::Point2d(),comdat
	.align 2
	.weak	Point2d::Point2d()
	.type	Point2d::Point2d(), @function
Point2d::Point2d():
.LFB12:
	.loc 1 1 0
	.cfi_startproc
	pushq	%rbp
.LCFI21:
	.cfi_def_cfa_offset 16
	.cfi_offset 6, -16
	movq	%rsp, %rbp
.LCFI22:
	.cfi_def_cfa_register 6
	movq	%rdi, -8(%rbp)
.LBB2:
	.loc 1 1 0
	movq	-8(%rbp), %rax
	movq	vtable for Point2d+16, (%rax)
.LBE2:
	popq	%rbp
.LCFI23:
	.cfi_def_cfa 7, 8
	ret
	.cfi_endproc
.LFE12:
	.size	Point2d::Point2d(), .-Point2d::Point2d()
	.weak	Point2d::Point2d()
	.set	Point2d::Point2d(),Point2d::Point2d()
	.section	.text._ZN6VertexC2Ev,"axG",@progbits,Vertex::Vertex(),comdat
	.align 2
	.weak	Vertex::Vertex()
	.type	Vertex::Vertex(), @function
Vertex::Vertex():
.LFB15:
	.loc 1 15 0
	.cfi_startproc
	pushq	%rbp
.LCFI24:
	.cfi_def_cfa_offset 16
	.cfi_offset 6, -16
	movq	%rsp, %rbp
.LCFI25:
	.cfi_def_cfa_register 6
	movq	%rdi, -8(%rbp)
	movq	%rsi, -16(%rbp)
.LBB3:
	.loc 1 15 0
	movq	-16(%rbp), %rax
	movq	(%rax), %rdx
	movq	-8(%rbp), %rax
	movq	%rdx, (%rax)
	movq	-8(%rbp), %rax
	movq	(%rax), %rax
	subq	$24, %rax
	movq	(%rax), %rax
	movq	%rax, %rdx
	movq	-8(%rbp), %rax
	addq	%rax, %rdx
	movq	-16(%rbp), %rax
	movq	8(%rax), %rax
	movq	%rax, (%rdx)
.LBE3:
	popq	%rbp
.LCFI26:
	.cfi_def_cfa 7, 8
	ret
	.cfi_endproc
.LFE15:
	.size	Vertex::Vertex(), .-Vertex::Vertex()
	.section	.text._ZN7Point3dC2Ev,"axG",@progbits,Point3d::Point3d(),comdat
	.align 2
	.weak	Point3d::Point3d()
	.type	Point3d::Point3d(), @function
Point3d::Point3d():
.LFB18:
	.loc 1 23 0
	.cfi_startproc
	pushq	%rbp
.LCFI27:
	.cfi_def_cfa_offset 16
	.cfi_offset 6, -16
	movq	%rsp, %rbp
.LCFI28:
	.cfi_def_cfa_register 6
	movq	%rdi, -8(%rbp)
	movq	%rsi, -16(%rbp)
.LBB4:
	.loc 1 23 0
	movq	-16(%rbp), %rax
	movq	(%rax), %rdx
	movq	-8(%rbp), %rax
	movq	%rdx, (%rax)
	movq	-8(%rbp), %rax
	movq	(%rax), %rax
	subq	$24, %rax
	movq	(%rax), %rax
	movq	%rax, %rdx
	movq	-8(%rbp), %rax
	addq	%rax, %rdx
	movq	-16(%rbp), %rax
	movq	8(%rax), %rax
	movq	%rax, (%rdx)
.LBE4:
	popq	%rbp
.LCFI29:
	.cfi_def_cfa 7, 8
	ret
	.cfi_endproc
.LFE18:
	.size	Point3d::Point3d(), .-Point3d::Point3d()
	.section	.text._ZN8Vertex3dC1Ev,"axG",@progbits,Vertex3d::Vertex3d(),comdat
	.align 2
	.weak	Vertex3d::Vertex3d()
	.type	Vertex3d::Vertex3d(), @function
Vertex3d::Vertex3d():
.LFB21:
	.loc 1 30 0
	.cfi_startproc
	pushq	%rbp
.LCFI30:
	.cfi_def_cfa_offset 16
	.cfi_offset 6, -16
	movq	%rsp, %rbp
.LCFI31:
	.cfi_def_cfa_register 6
	subq	$16, %rsp
	movq	%rdi, -8(%rbp)
.LBB5:
	.loc 1 30 0
	movq	-8(%rbp), %rax
	addq	$32, %rax
	movq	%rax, %rdi
	call	Point2d::Point2d()
	movl	VTT for Vertex3d+8, %edx
	movq	-8(%rbp), %rax
	movq	%rdx, %rsi
	movq	%rax, %rdi
	call	Vertex::Vertex()
	movl	VTT for Vertex3d+24, %eax
	movq	-8(%rbp), %rdx
	addq	$16, %rdx
	movq	%rax, %rsi
	movq	%rdx, %rdi
	call	Point3d::Point3d()
	movl	vtable for Vertex3d+24, %edx
	movq	-8(%rbp), %rax
	movq	%rdx, (%rax)
	movl	$32, %edx
	movq	-8(%rbp), %rax
	addq	%rax, %rdx
	movl	vtable for Vertex3d+112, %eax
	movq	%rax, (%rdx)
	movl	vtable for Vertex3d+64, %edx
	movq	-8(%rbp), %rax
	movq	%rdx, 16(%rax)
.LBE5:
	leave
.LCFI32:
	.cfi_def_cfa 7, 8
	ret
	.cfi_endproc
.LFE21:
	.size	Vertex3d::Vertex3d(), .-Vertex3d::Vertex3d()
	.text
	.globl	main
	.type	main, @function
main:
.LFB9:
	.loc 1 38 0
	.cfi_startproc
	pushq	%rbp
.LCFI33:
	.cfi_def_cfa_offset 16
	.cfi_offset 6, -16
	movq	%rsp, %rbp
.LCFI34:
	.cfi_def_cfa_register 6
	subq	$64, %rsp
	movl	%edi, -52(%rbp)
	movq	%rsi, -64(%rbp)
.LBB6:
	.loc 1 39 0
	leaq	-48(%rbp), %rax
	movq	%rax, %rdi
	call	Vertex3d::Vertex3d()
	.loc 1 40 0
	leaq	-48(%rbp), %rax
	movq	%rax, %rdi
	call	Vertex3d::test()
	.loc 1 41 0
	movl	$0, %eax
.LBE6:
	.loc 1 42 0
	leave
.LCFI35:
	.cfi_def_cfa 7, 8
	ret
	.cfi_endproc
.LFE9:
	.size	main, .-main
	.weak	vtable for Vertex3d
	.section	.rodata._ZTV8Vertex3d,"aG",@progbits,vtable for Vertex3d,comdat
	.align 32
	.type	vtable for Vertex3d, @object
	.size	vtable for Vertex3d, 136
vtable for Vertex3d:
	.quad	32
	.quad	0
	.quad	typeinfo for Vertex3d
	.quad	Vertex::Foo()
	.quad	Vertex::BooVer()
	.quad	16
	.quad	-16
	.quad	typeinfo for Vertex3d
	.quad	Point3d::Boo3d()
	.quad	0
	.quad	0
	.quad	-32
	.quad	-32
	.quad	typeinfo for Vertex3d
	.quad	virtual thunk to Vertex::Foo()
	.quad	Point2d::Boo()
	.quad	Point2d::non_overwrite()
	.weak	VTT for Vertex3d
	.section	.rodata._ZTT8Vertex3d,"aG",@progbits,vtable for Vertex3d,comdat
	.align 32
	.type	VTT for Vertex3d, @object
	.size	VTT for Vertex3d, 56
VTT for Vertex3d:
	.quad	vtable for Vertex3d+24
	.quad	construction vtable for Vertex-in-Vertex3d+24
	.quad	construction vtable for Vertex-in-Vertex3d+80
	.quad	construction vtable for Point3d-in-Vertex3d+24
	.quad	construction vtable for Point3d-in-Vertex3d+72
	.quad	vtable for Vertex3d+112
	.quad	vtable for Vertex3d+64
	.weak	construction vtable for Vertex-in-Vertex3d
	.section	.rodata._ZTC8Vertex3d0_6Vertex,"aG",@progbits,vtable for Vertex3d,comdat
	.align 32
	.type	construction vtable for Vertex-in-Vertex3d, @object
	.size	construction vtable for Vertex-in-Vertex3d, 104
construction vtable for Vertex-in-Vertex3d:
	.quad	32
	.quad	0
	.quad	typeinfo for Vertex
	.quad	Vertex::Foo()
	.quad	Vertex::BooVer()
	.quad	0
	.quad	0
	.quad	-32
	.quad	-32
	.quad	typeinfo for Vertex
	.quad	virtual thunk to Vertex::Foo()
	.quad	Point2d::Boo()
	.quad	Point2d::non_overwrite()
	.weak	construction vtable for Point3d-in-Vertex3d
	.section	.rodata._ZTC8Vertex3d16_7Point3d,"aG",@progbits,vtable for Vertex3d,comdat
	.align 32
	.type	construction vtable for Point3d-in-Vertex3d, @object
	.size	construction vtable for Point3d-in-Vertex3d, 96
construction vtable for Point3d-in-Vertex3d:
	.quad	16
	.quad	0
	.quad	typeinfo for Point3d
	.quad	Point3d::Boo3d()
	.quad	0
	.quad	0
	.quad	0
	.quad	-16
	.quad	typeinfo for Point3d
	.quad	Point2d::Foo()
	.quad	Point2d::Boo()
	.quad	Point2d::non_overwrite()
	.weak	vtable for Point2d
	.section	.rodata._ZTV7Point2d,"aG",@progbits,vtable for Point2d,comdat
	.align 32
	.type	vtable for Point2d, @object
	.size	vtable for Point2d, 40
vtable for Point2d:
	.quad	0
	.quad	typeinfo for Point2d
	.quad	Point2d::Foo()
	.quad	Point2d::Boo()
	.quad	Point2d::non_overwrite()
	.weak	typeinfo name for Vertex3d
	.section	.rodata._ZTS8Vertex3d,"aG",@progbits,typeinfo name for Vertex3d,comdat
	.type	typeinfo name for Vertex3d, @object
	.size	typeinfo name for Vertex3d, 10
typeinfo name for Vertex3d:
	.string	"8Vertex3d"
	.weak	typeinfo for Vertex3d
	.section	.rodata._ZTI8Vertex3d,"aG",@progbits,typeinfo for Vertex3d,comdat
	.align 32
	.type	typeinfo for Vertex3d, @object
	.size	typeinfo for Vertex3d, 56
typeinfo for Vertex3d:
	.quad	vtable for __cxxabiv1::__vmi_class_type_info+16
	.quad	typeinfo name for Vertex3d
	.long	2
	.long	2
	.quad	typeinfo for Vertex
	.quad	2
	.quad	typeinfo for Point3d
	.quad	4098
	.weak	typeinfo name for Point3d
	.section	.rodata._ZTS7Point3d,"aG",@progbits,typeinfo name for Point3d,comdat
	.type	typeinfo name for Point3d, @object
	.size	typeinfo name for Point3d, 9
typeinfo name for Point3d:
	.string	"7Point3d"
	.weak	typeinfo for Point3d
	.section	.rodata._ZTI7Point3d,"aG",@progbits,typeinfo for Point3d,comdat
	.align 32
	.type	typeinfo for Point3d, @object
	.size	typeinfo for Point3d, 40
typeinfo for Point3d:
	.quad	vtable for __cxxabiv1::__vmi_class_type_info+16
	.quad	typeinfo name for Point3d
	.long	0
	.long	1
	.quad	typeinfo for Point2d
	.quad	-6141
	.weak	typeinfo name for Vertex
	.section	.rodata._ZTS6Vertex,"aG",@progbits,typeinfo name for Vertex,comdat
	.type	typeinfo name for Vertex, @object
	.size	typeinfo name for Vertex, 8
typeinfo name for Vertex:
	.string	"6Vertex"
	.weak	typeinfo for Vertex
	.section	.rodata._ZTI6Vertex,"aG",@progbits,typeinfo for Vertex,comdat
	.align 32
	.type	typeinfo for Vertex, @object
	.size	typeinfo for Vertex, 40
typeinfo for Vertex:
	.quad	vtable for __cxxabiv1::__vmi_class_type_info+16
	.quad	typeinfo name for Vertex
	.long	0
	.long	1
	.quad	typeinfo for Point2d
	.quad	-6141
	.weak	typeinfo name for Point2d
	.section	.rodata._ZTS7Point2d,"aG",@progbits,typeinfo name for Point2d,comdat
	.type	typeinfo name for Point2d, @object
	.size	typeinfo name for Point2d, 9
typeinfo name for Point2d:
	.string	"7Point2d"
	.weak	typeinfo for Point2d
	.section	.rodata._ZTI7Point2d,"aG",@progbits,typeinfo for Point2d,comdat
	.align 16
	.type	typeinfo for Point2d, @object
	.size	typeinfo for Point2d, 16
typeinfo for Point2d:
	.quad	vtable for __cxxabiv1::__class_type_info+16
	.quad	typeinfo name for Point2d
	.text
.Letext0:
	.section	.note.GNU-stack,"",@progbits
