	.file	"main_3_3.cpp"
	.text
.Ltext0:
	.section	.text._ZN4TestC2Ev,"axG",@progbits,Test::Test(),comdat
	.align 2
	.weak	Test::Test()
	.type	Test::Test(), @function
Test::Test():
.LFB1:
	.file 1 "main_3_3.cpp"
	.loc 1 6 0
	.cfi_startproc
	pushl	%ebp
.LCFI0:
	.cfi_def_cfa_offset 8
	.cfi_offset 5, -8
	movl	%esp, %ebp
.LCFI1:
	.cfi_def_cfa_register 5
.LBB2:
	.loc 1 6 0
	movl	8(%ebp), %eax
	movl	$3333, (%eax)
.LBE2:
	popl	%ebp
.LCFI2:
	.cfi_restore 5
	.cfi_def_cfa 4, 4
	ret
	.cfi_endproc
.LFE1:
	.size	Test::Test(), .-Test::Test()
	.weak	Test::Test()
	.set	Test::Test(),Test::Test()
	.section	.text._ZN4Test5func2Eii,"axG",@progbits,Test::func2(int, int),comdat
	.align 2
	.weak	Test::func2(int, int)
	.type	Test::func2(int, int), @function
Test::func2(int, int):
.LFB3:
	.loc 1 7 0
	.cfi_startproc
	pushl	%ebp
.LCFI3:
	.cfi_def_cfa_offset 8
	.cfi_offset 5, -8
	movl	%esp, %ebp
.LCFI4:
	.cfi_def_cfa_register 5
	.loc 1 9 0
	addl	$1, 12(%ebp)
	.loc 1 10 0
	addl	$2, 16(%ebp)
	.loc 1 11 0
	popl	%ebp
.LCFI5:
	.cfi_restore 5
	.cfi_def_cfa 4, 4
	ret
	.cfi_endproc
.LFE3:
	.size	Test::func2(int, int), .-Test::func2(int, int)
	.text
	.globl	main
	.type	main, @function
main:
.LFB4:
	.loc 1 17 0
	.cfi_startproc
	pushl	%ebp
.LCFI6:
	.cfi_def_cfa_offset 8
	.cfi_offset 5, -8
	movl	%esp, %ebp
.LCFI7:
	.cfi_def_cfa_register 5
	andl	$-16, %esp
	subl	$32, %esp
.LBB3:
	.loc 1 18 0
	leal	28(%esp), %eax
	movl	%eax, (%esp)
	call	Test::Test()
	.loc 1 19 0
	movl	$2222, 8(%esp)
	movl	$1111, 4(%esp)
	leal	28(%esp), %eax
	movl	%eax, (%esp)
	call	Test::func2(int, int)
	.loc 1 20 0
	movl	$0, %eax
.LBE3:
	.loc 1 21 0
	leave
.LCFI8:
	.cfi_restore 5
	.cfi_def_cfa 4, 4
	ret
	.cfi_endproc
.LFE4:
	.size	main, .-main
.Letext0:
	.section	.note.GNU-stack,"",@progbits
